target datalayout = "e-m:e-p270:32:32-p271:32:32-p272:64:64-i64:64-i128:128-f80:128-n8:16:32:64-S128"
target triple = "x86_64-unknown-linux-gnu"

%"class.cvc5::internal::FatalStream" = type { i8 }

@__PRETTY_FUNCTION__._ZN4cvc58internal4prop13CadicalSolver12addXorClauseERSt6vectorINS1_10SatLiteralESaIS4_EEbb = private unnamed_addr constant [92 x i8] c"virtual ClauseId cvc5::internal::prop::CadicalSolver::addXorClause(SatClause &, bool, bool)\00", align 1
@.str.13 = private unnamed_addr constant [108 x i8] c"generated/home/dtcxzyw/WorkSpace/Projects/compilers/llvm-opt-benchmark/bench/cvc5/cvc5/src/prop/cadical.cpp\00", align 1
@.str.14 = private unnamed_addr constant [26 x i8] c"Unreachable code reached \00", align 1
@.str.15 = private unnamed_addr constant [45 x i8] c"CaDiCaL does not support adding XOR clauses.\00", align 1

; Function Attrs: mustprogress uwtable
define hidden noundef i32 @_ZN4cvc58internal4prop13CadicalSolver12addXorClauseERSt6vectorINS1_10SatLiteralESaIS4_EEbb(ptr noundef nonnull align 8 dereferenceable(144) %this, ptr noundef nonnull align 8 dereferenceable(24) %clause, i1 noundef zeroext %rhs, i1 noundef zeroext %removable) unnamed_addr #5 align 2 personality ptr @__gxx_personality_v0 {
entry:
  %this.addr = alloca ptr, align 8
  %clause.addr = alloca ptr, align 8
  %rhs.addr = alloca i8, align 1
  %removable.addr = alloca i8, align 1
  %ref.tmp = alloca %"class.cvc5::internal::FatalStream", align 1
  %exn.slot = alloca ptr, align 8
  %ehselector.slot = alloca i32, align 4
  store ptr %this, ptr %this.addr, align 8
  store ptr %clause, ptr %clause.addr, align 8
  %frombool = zext i1 %rhs to i8
  store i8 %frombool, ptr %rhs.addr, align 1
  %frombool1 = zext i1 %removable to i8
  store i8 %frombool1, ptr %removable.addr, align 1
  call void @_ZN4cvc58internal11FatalStreamC1EPKcS3_i(ptr noundef nonnull align 1 dereferenceable(1) %ref.tmp, ptr noundef @__PRETTY_FUNCTION__._ZN4cvc58internal4prop13CadicalSolver12addXorClauseERSt6vectorINS1_10SatLiteralESaIS4_EEbb, ptr noundef @.str.13, i32 noundef 1067)
  %call = invoke noundef nonnull align 8 dereferenceable(8) ptr @_ZN4cvc58internal11FatalStream6streamEv(ptr noundef nonnull align 1 dereferenceable(1) %ref.tmp)
          to label %invoke.cont unwind label %lpad

invoke.cont:                                      ; preds = %entry
  %call4 = invoke noundef nonnull align 8 dereferenceable(8) ptr @_ZStlsISt11char_traitsIcEERSt13basic_ostreamIcT_ES5_PKc(ptr noundef nonnull align 8 dereferenceable(8) %call, ptr noundef @.str.14)
          to label %invoke.cont3 unwind label %lpad

invoke.cont3:                                     ; preds = %invoke.cont
  %call6 = invoke noundef nonnull align 8 dereferenceable(8) ptr @_ZStlsISt11char_traitsIcEERSt13basic_ostreamIcT_ES5_PKc(ptr noundef nonnull align 8 dereferenceable(8) %call4, ptr noundef @.str.15)
          to label %invoke.cont5 unwind label %lpad

invoke.cont5:                                     ; preds = %invoke.cont3
  call void @_ZN4cvc58internal11FatalStreamD1Ev(ptr noundef nonnull align 1 dereferenceable(1) %ref.tmp) #19
  unreachable

lpad:                                             ; preds = %invoke.cont3, %invoke.cont, %entry
  %0 = landingpad { ptr, i32 }
          cleanup
  %1 = extractvalue { ptr, i32 } %0, 0
  store ptr %1, ptr %exn.slot, align 8
  %2 = extractvalue { ptr, i32 } %0, 1
  store i32 %2, ptr %ehselector.slot, align 4
  call void @_ZN4cvc58internal11FatalStreamD1Ev(ptr noundef nonnull align 1 dereferenceable(1) %ref.tmp) #19
  unreachable

3:                                                ; No predecessors!
  br label %eh.resume

eh.resume:                                        ; preds = %3
  %exn = load ptr, ptr %exn.slot, align 8
  %sel = load i32, ptr %ehselector.slot, align 4
  %lpad.val = insertvalue { ptr, i32 } poison, ptr %exn, 0
  %lpad.val7 = insertvalue { ptr, i32 } %lpad.val, i32 %sel, 1
  resume { ptr, i32 } %lpad.val7
}